target datalayout = "e-m:e-p270:32:32-p271:32:32-p272:64:64-i64:64-i128:128-f80:128-n8:16:32:64-S128"
target triple = "x86_64-pc-linux-gnu"

%struct.node_record = type { ptr, ptr, i16, i64, i64, ptr, ptr, ptr, i16, ptr, i16, i16, i32, i32, i64, ptr, i16, i16, ptr, ptr, ptr, ptr, ptr, i64, i64, ptr, ptr, ptr, ptr, i32, ptr, ptr, i64, i64, i32, ptr, i64, ptr, i32, i16, ptr, ptr, i32, ptr, i32, i8, ptr, i32, i16, i16, ptr, i16, i64, i16, i64, ptr, i64, i32, i16, i64, i16, ptr, i16, i64, ptr, i64, i16, i32, i16, ptr, ptr, ptr, i16, i32, i16, i16, i32, ptr, i16, i32 }

@node_record_count = external global i32, align 4
@.str = private unnamed_addr constant [13 x i8] c"core_array.c\00", align 1
@__func__.build_core_array = private unnamed_addr constant [17 x i8] c"build_core_array\00", align 1
@node_record_table_ptr = external global ptr, align 8
@.str.7 = private unnamed_addr constant [33 x i8] c"error translating core bitmap %s\00", align 1

; Function Attrs: nounwind uwtable
define dso_local ptr @build_core_array() #0 {
  %1 = load i32, ptr @node_record_count, align 4
  %2 = sext i32 %1 to i64
  %3 = call ptr @slurm_xcalloc(i64 noundef %2, i64 noundef 8, i1 noundef zeroext true, i1 noundef zeroext false, ptr noundef @.str, i32 noundef 50, ptr noundef @__func__.build_core_array)
  ret ptr %3
}

; Function Attrs: nounwind uwtable
define dso_local ptr @core_bitmap_to_array(ptr noundef %0) #0 {
  %2 = alloca ptr, align 8
  %3 = alloca ptr, align 8
  %4 = alloca ptr, align 8
  %5 = alloca i32, align 4
  %6 = alloca i32, align 4
  %7 = alloca i32, align 4
  %8 = alloca i32, align 4
  %9 = alloca i32, align 4
  %10 = alloca i32, align 4
  %11 = alloca i32, align 4
  %12 = alloca [128 x i8], align 16
  %13 = alloca i32, align 4
  store ptr %0, ptr %3, align 8
  call void @llvm.lifetime.start.p0(i64 8, ptr %4) #3
  store ptr null, ptr %4, align 8
  call void @llvm.lifetime.start.p0(i64 4, ptr %5) #3
  call void @llvm.lifetime.start.p0(i64 4, ptr %6) #3
  call void @llvm.lifetime.start.p0(i64 4, ptr %7) #3
  call void @llvm.lifetime.start.p0(i64 4, ptr %8) #3
  call void @llvm.lifetime.start.p0(i64 4, ptr %9) #3
  call void @llvm.lifetime.start.p0(i64 4, ptr %10) #3
  store i32 0, ptr %10, align 4
  call void @llvm.lifetime.start.p0(i64 4, ptr %11) #3
  call void @llvm.lifetime.start.p0(i64 128, ptr %12) #3
  %14 = load ptr, ptr %3, align 8
  %15 = icmp ne ptr %14, null
  br i1 %15, label %18, label %16

16:                                               ; preds = %1
  %17 = load ptr, ptr %4, align 8
  store ptr %17, ptr %2, align 8
  store i32 1, ptr %13, align 4
  br label %137

18:                                               ; preds = %1
  %19 = load ptr, ptr %3, align 8
  %20 = call i64 @bit_ffs(ptr noundef %19)
  %21 = trunc i64 %20 to i32
  store i32 %21, ptr %6, align 4
  %22 = load i32, ptr %6, align 4
  %23 = icmp eq i32 %22, -1
  br i1 %23, label %24, label %26

24:                                               ; preds = %18
  %25 = load ptr, ptr %4, align 8
  store ptr %25, ptr %2, align 8
  store i32 1, ptr %13, align 4
  br label %137

26:                                               ; preds = %18
  %27 = call ptr @build_core_array()
  store ptr %27, ptr %4, align 8
  %28 = load ptr, ptr %3, align 8
  %29 = call i64 @bit_fls(ptr noundef %28)
  %30 = trunc i64 %29 to i32
  store i32 %30, ptr %7, align 4
  %31 = load i32, ptr %6, align 4
  store i32 %31, ptr %5, align 4
  br label %32

32:                                               ; preds = %132, %26
  %33 = load i32, ptr %5, align 4
  %34 = load i32, ptr %7, align 4
  %35 = icmp sle i32 %33, %34
  br i1 %35, label %36, label %135

36:                                               ; preds = %32
  %37 = load ptr, ptr %3, align 8
  %38 = load i32, ptr %5, align 4
  %39 = sext i32 %38 to i64
  %40 = call i32 @slurm_bit_test(ptr noundef %37, i64 noundef %39)
  %41 = icmp ne i32 %40, 0
  br i1 %41, label %43, label %42

42:                                               ; preds = %36
  br label %132

43:                                               ; preds = %36
  %44 = load i32, ptr %10, align 4
  store i32 %44, ptr %8, align 4
  br label %45

45:                                               ; preds = %61, %43
  %46 = call ptr @next_node(ptr noundef %8)
  %47 = icmp ne ptr %46, null
  br i1 %47, label %48, label %64

48:                                               ; preds = %45
  %49 = load i32, ptr %5, align 4
  %50 = load i32, ptr %8, align 4
  %51 = add nsw i32 %50, 1
  %52 = call i32 @cr_get_coremap_offset(i32 noundef %51)
  %53 = icmp ult i32 %49, %52
  br i1 %53, label %54, label %60

54:                                               ; preds = %48
  %55 = load i32, ptr %8, align 4
  store i32 %55, ptr %10, align 4
  %56 = load i32, ptr %8, align 4
  %57 = add nsw i32 %56, 1
  %58 = call i32 @cr_get_coremap_offset(i32 noundef %57)
  %59 = sub i32 %58, 1
  store i32 %59, ptr %5, align 4
  br label %64

60:                                               ; preds = %48
  br label %61

61:                                               ; preds = %60
  %62 = load i32, ptr %8, align 4
  %63 = add nsw i32 %62, 1
  store i32 %63, ptr %8, align 4
  br label %45, !llvm.loop !21

64:                                               ; preds = %54, %45
  %65 = load i32, ptr %8, align 4
  %66 = load i32, ptr @node_record_count, align 4
  %67 = icmp sge i32 %65, %66
  br i1 %67, label %68, label %74

68:                                               ; preds = %64
  %69 = getelementptr inbounds [128 x i8], ptr %12, i64 0, i64 0
  %70 = load ptr, ptr %3, align 8
  %71 = call ptr @bit_fmt(ptr noundef %69, i32 noundef 128, ptr noundef %70)
  %72 = getelementptr inbounds [128 x i8], ptr %12, i64 0, i64 0
  %73 = call i32 (ptr, ...) @error(ptr noundef @.str.7, ptr noundef %72)
  br label %135

74:                                               ; preds = %64
  %75 = load ptr, ptr @node_record_table_ptr, align 8
  %76 = load i32, ptr %10, align 4
  %77 = sext i32 %76 to i64
  %78 = getelementptr inbounds ptr, ptr %75, i64 %77
  %79 = load ptr, ptr %78, align 8
  %80 = icmp ne ptr %79, null
  br i1 %80, label %82, label %81

81:                                               ; preds = %74
  br label %135

82:                                               ; preds = %74
  %83 = load ptr, ptr @node_record_table_ptr, align 8
  %84 = load i32, ptr %10, align 4
  %85 = sext i32 %84 to i64
  %86 = getelementptr inbounds ptr, ptr %83, i64 %85
  %87 = load ptr, ptr %86, align 8
  %88 = getelementptr inbounds nuw %struct.node_record, ptr %87, i32 0, i32 74
  %89 = load i16, ptr %88, align 8
  %90 = zext i16 %89 to i64
  %91 = call ptr @bit_alloc(i64 noundef %90)
  %92 = load ptr, ptr %4, align 8
  %93 = load i32, ptr %10, align 4
  %94 = sext i32 %93 to i64
  %95 = getelementptr inbounds ptr, ptr %92, i64 %94
  store ptr %91, ptr %95, align 8
  %96 = load i32, ptr %10, align 4
  %97 = call i32 @cr_get_coremap_offset(i32 noundef %96)
  store i32 %97, ptr %11, align 4
  store i32 0, ptr %9, align 4
  br label %98

98:                                               ; preds = %126, %82
  %99 = load i32, ptr %9, align 4
  %100 = load ptr, ptr @node_record_table_ptr, align 8
  %101 = load i32, ptr %10, align 4
  %102 = sext i32 %101 to i64
  %103 = getelementptr inbounds ptr, ptr %100, i64 %102
  %104 = load ptr, ptr %103, align 8
  %105 = getelementptr inbounds nuw %struct.node_record, ptr %104, i32 0, i32 74
  %106 = load i16, ptr %105, align 8
  %107 = zext i16 %106 to i32
  %108 = icmp slt i32 %99, %107
  br i1 %108, label %109, label %129

109:                                              ; preds = %98
  %110 = load ptr, ptr %3, align 8
  %111 = load i32, ptr %11, align 4
  %112 = load i32, ptr %9, align 4
  %113 = add nsw i32 %111, %112
  %114 = sext i32 %113 to i64
  %115 = call i32 @slurm_bit_test(ptr noundef %110, i64 noundef %114)
  %116 = icmp ne i32 %115, 0
  br i1 %116, label %117, label %125

117:                                              ; preds = %109
  %118 = load ptr, ptr %4, align 8
  %119 = load i32, ptr %10, align 4
  %120 = sext i32 %119 to i64
  %121 = getelementptr inbounds ptr, ptr %118, i64 %120
  %122 = load ptr, ptr %121, align 8
  %123 = load i32, ptr %9, align 4
  %124 = sext i32 %123 to i64
  call void @bit_set(ptr noundef %122, i64 noundef %124)
  br label %125

125:                                              ; preds = %117, %109
  br label %126

126:                                              ; preds = %125
  %127 = load i32, ptr %9, align 4
  %128 = add nsw i32 %127, 1
  store i32 %128, ptr %9, align 4
  br label %98, !llvm.loop !22

129:                                              ; preds = %98
  %130 = load i32, ptr %10, align 4
  %131 = add nsw i32 %130, 1
  store i32 %131, ptr %10, align 4
  br label %132

132:                                              ; preds = %129, %42
  %133 = load i32, ptr %5, align 4
  %134 = add nsw i32 %133, 1
  store i32 %134, ptr %5, align 4
  br label %32, !llvm.loop !23

135:                                              ; preds = %81, %68, %32
  %136 = load ptr, ptr %4, align 8
  store ptr %136, ptr %2, align 8
  store i32 1, ptr %13, align 4
  br label %137

137:                                              ; preds = %135, %24, %16
  call void @llvm.lifetime.end.p0(i64 128, ptr %12) #3
  call void @llvm.lifetime.end.p0(i64 4, ptr %11) #3
  call void @llvm.lifetime.end.p0(i64 4, ptr %10) #3
  call void @llvm.lifetime.end.p0(i64 4, ptr %9) #3
  call void @llvm.lifetime.end.p0(i64 4, ptr %8) #3
  call void @llvm.lifetime.end.p0(i64 4, ptr %7) #3
  call void @llvm.lifetime.end.p0(i64 4, ptr %6) #3
  call void @llvm.lifetime.end.p0(i64 4, ptr %5) #3
  call void @llvm.lifetime.end.p0(i64 8, ptr %4) #3
  %138 = load ptr, ptr %2, align 8
  ret ptr %138
}