; Function Attrs: nounwind uwtable
define dso_local ptr @core_bitmap_to_array(ptr noundef %0) local_unnamed_addr #0 {
  %2 = alloca i32, align 4
  %3 = alloca [128 x i8], align 16
  call void @llvm.lifetime.start.p0(i64 4, ptr nonnull %2) #3
  call void @llvm.lifetime.start.p0(i64 128, ptr nonnull %3) #3
  %.not = icmp eq ptr %0, null
  br i1 %.not, label %.loopexit45, label %4

4:                                                ; preds = %1
  %5 = tail call i64 @bit_ffs(ptr noundef nonnull %0) #3
  %6 = trunc i64 %5 to i32
  %7 = icmp eq i32 %6, -1
  br i1 %7, label %.loopexit45, label %8

8:                                                ; preds = %4
  %9 = load i32, ptr @node_record_count, align 4
  %10 = sext i32 %9 to i64
  %11 = tail call ptr @slurm_xcalloc(i64 noundef %10, i64 noundef 8, i1 noundef zeroext true, i1 noundef zeroext false, ptr noundef nonnull @.str, i32 noundef 50, ptr noundef nonnull @__func__.build_core_array) #3
  %12 = tail call i64 @bit_fls(ptr noundef nonnull %0) #3
  %13 = trunc i64 %12 to i32
  %.not3949 = icmp sgt i32 %6, %13
  br i1 %.not3949, label %.loopexit45, label %.lr.ph53

.lr.ph53:                                         ; preds = %8, %64
  %.03151 = phi i32 [ %.1, %64 ], [ 0, %8 ]
  %.03350 = phi i32 [ %65, %64 ], [ %6, %8 ]
  %14 = sext i32 %.03350 to i64
  %15 = call i32 @slurm_bit_test(ptr noundef nonnull %0, i64 noundef %14) #3
  %.not40 = icmp eq i32 %15, 0
  br i1 %.not40, label %64, label %.preheader

.preheader:                                       ; preds = %.lr.ph53
  store i32 %.03151, ptr %2, align 4
  %16 = call ptr @next_node(ptr noundef nonnull %2) #3
  %.not4146 = icmp eq ptr %16, null
  br i1 %.not4146, label %.loopexit, label %.lr.ph

.lr.ph:                                           ; preds = %.preheader, %26
  %17 = load i32, ptr %2, align 4
  %18 = add nsw i32 %17, 1
  %19 = call i32 @cr_get_coremap_offset(i32 noundef %18) #3
  %20 = icmp ult i32 %.03350, %19
  %21 = load i32, ptr %2, align 4
  %22 = add nsw i32 %21, 1
  br i1 %20, label %23, label %26

23:                                               ; preds = %.lr.ph
  %24 = call i32 @cr_get_coremap_offset(i32 noundef %22) #3
  %25 = add i32 %24, -1
  br label %.loopexit

26:                                               ; preds = %.lr.ph
  store i32 %22, ptr %2, align 4
  %27 = call ptr @next_node(ptr noundef nonnull %2) #3
  %.not41 = icmp eq ptr %27, null
  br i1 %.not41, label %.loopexit, label %.lr.ph, !llvm.loop !21

.loopexit:                                        ; preds = %26, %.preheader, %23
  %.235 = phi i32 [ %25, %23 ], [ %.03350, %.preheader ], [ %.03350, %26 ]
  %.2 = phi i32 [ %21, %23 ], [ %.03151, %.preheader ], [ %.03151, %26 ]
  %28 = load i32, ptr %2, align 4
  %29 = load i32, ptr @node_record_count, align 4
  %.not42 = icmp slt i32 %28, %29
  br i1 %.not42, label %33, label %30

30:                                               ; preds = %.loopexit
  %31 = call ptr @bit_fmt(ptr noundef nonnull %3, i32 noundef 128, ptr noundef nonnull %0) #3
  %32 = call i32 (ptr, ...) @error(ptr noundef nonnull @.str.7, ptr noundef nonnull %3) #3
  br label %.loopexit45

33:                                               ; preds = %.loopexit
  %34 = load ptr, ptr @node_record_table_ptr, align 8
  %35 = sext i32 %.2 to i64
  %36 = getelementptr inbounds ptr, ptr %34, i64 %35
  %37 = load ptr, ptr %36, align 8
  %.not43 = icmp eq ptr %37, null
  br i1 %.not43, label %.loopexit45, label %38

38:                                               ; preds = %33
  %39 = getelementptr inbounds nuw i8, ptr %37, i64 512
  %40 = load i16, ptr %39, align 8
  %41 = zext i16 %40 to i64
  %42 = call ptr @bit_alloc(i64 noundef %41) #3
  %43 = getelementptr inbounds ptr, ptr %11, i64 %35
  store ptr %42, ptr %43, align 8
  %44 = call i32 @cr_get_coremap_offset(i32 noundef %.2) #3
  %45 = load ptr, ptr @node_record_table_ptr, align 8
  %46 = getelementptr inbounds ptr, ptr %45, i64 %35
  %47 = load ptr, ptr %46, align 8
  %48 = getelementptr inbounds nuw i8, ptr %47, i64 512
  %49 = load i16, ptr %48, align 8
  %.not55 = icmp eq i16 %49, 0
  br i1 %.not55, label %._crit_edge, label %.lr.ph48.preheader

.lr.ph48.preheader:                               ; preds = %38
  %50 = sext i32 %44 to i64
  br label %.lr.ph48

.lr.ph48:                                         ; preds = %.lr.ph48.preheader, %55
  %indvars.iv = phi i64 [ 0, %.lr.ph48.preheader ], [ %indvars.iv.next, %55 ]
  %51 = add nsw i64 %indvars.iv, %50
  %52 = call i32 @slurm_bit_test(ptr noundef nonnull %0, i64 noundef %51) #3
  %.not44 = icmp eq i32 %52, 0
  br i1 %.not44, label %55, label %53

53:                                               ; preds = %.lr.ph48
  %54 = load ptr, ptr %43, align 8
  call void @bit_set(ptr noundef %54, i64 noundef %indvars.iv) #3
  br label %55

55:                                               ; preds = %.lr.ph48, %53
  %indvars.iv.next = add nuw nsw i64 %indvars.iv, 1
  %56 = load ptr, ptr @node_record_table_ptr, align 8
  %57 = getelementptr inbounds ptr, ptr %56, i64 %35
  %58 = load ptr, ptr %57, align 8
  %59 = getelementptr inbounds nuw i8, ptr %58, i64 512
  %60 = load i16, ptr %59, align 8
  %61 = zext i16 %60 to i64
  %62 = icmp samesign ult i64 %indvars.iv.next, %61
  br i1 %62, label %.lr.ph48, label %._crit_edge, !llvm.loop !22

._crit_edge:                                      ; preds = %55, %38
  %63 = add nsw i32 %.2, 1
  br label %64

64:                                               ; preds = %.lr.ph53, %._crit_edge
  %.134 = phi i32 [ %.235, %._crit_edge ], [ %.03350, %.lr.ph53 ]
  %.1 = phi i32 [ %63, %._crit_edge ], [ %.03151, %.lr.ph53 ]
  %65 = add nsw i32 %.134, 1
  %.not39.not = icmp slt i32 %.134, %13
  br i1 %.not39.not, label %.lr.ph53, label %.loopexit45, !llvm.loop !23

.loopexit45:                                      ; preds = %33, %64, %8, %30, %4, %1
  %.0 = phi ptr [ null, %1 ], [ null, %4 ], [ %11, %30 ], [ %11, %8 ], [ %11, %64 ], [ %11, %33 ]
  call void @llvm.lifetime.end.p0(i64 128, ptr nonnull %3) #3
  call void @llvm.lifetime.end.p0(i64 4, ptr nonnull %2) #3
  ret ptr %.0
}